target datalayout = "e-m:e-p270:32:32-p271:32:32-p272:64:64-i64:64-i128:128-f80:128-n8:16:32:64-S128"
target triple = "x86_64-pc-linux-gnu"

%"struct.cv::Ptr" = type { %"class.std::shared_ptr" }
%"class.std::shared_ptr" = type { %"class.std::__shared_ptr" }
%"class.std::__shared_ptr" = type { ptr, %"class.std::__shared_count" }
%"class.std::__shared_count" = type { ptr }
%"struct.cv::Ptr.0" = type { %"class.std::shared_ptr.1" }
%"class.std::shared_ptr.1" = type { %"class.std::__shared_ptr.2" }
%"class.std::__shared_ptr.2" = type { ptr, %"class.std::__shared_count" }
%"class.cv::Size_" = type { i32, i32 }
%"class.std::_Sp_counted_base" = type { ptr, i32, i32 }

@__libc_single_threaded = external global i8, align 1

; Function Attrs: alwaysinline mustprogress nounwind uwtable
define linkonce_odr void @_ZN9__gnu_cxx12__atomic_addEPVii(ptr noundef %0, i32 noundef %1) #16 comdat {
  %3 = alloca ptr, align 8
  %4 = alloca i32, align 4
  %5 = alloca i32, align 4
  %6 = alloca i32, align 4
  store ptr %0, ptr %3, align 8, !tbaa !82
  store i32 %1, ptr %4, align 4, !tbaa !36
  %7 = load ptr, ptr %3, align 8, !tbaa !82
  %8 = load i32, ptr %4, align 4, !tbaa !36
  store i32 %8, ptr %5, align 4, !tbaa !36
  %9 = load i32, ptr %5, align 4
  %10 = atomicrmw volatile add ptr %7, i32 %9 acq_rel, align 4
  store i32 %10, ptr %6, align 4
  ret void
}

; Function Attrs: alwaysinline mustprogress nounwind uwtable
define linkonce_odr void @_ZN9__gnu_cxx19__atomic_add_singleEPii(ptr noundef %0, i32 noundef %1) #16 comdat {
  %3 = alloca ptr, align 8
  %4 = alloca i32, align 4
  store ptr %0, ptr %3, align 8, !tbaa !82
  store i32 %1, ptr %4, align 4, !tbaa !36
  %5 = load i32, ptr %4, align 4, !tbaa !36
  %6 = load ptr, ptr %3, align 8, !tbaa !82
  %7 = load i32, ptr %6, align 4, !tbaa !36
  %8 = add nsw i32 %7, %5
  store i32 %8, ptr %6, align 4, !tbaa !36
  ret void
}

; Function Attrs: alwaysinline mustprogress nounwind uwtable
define linkonce_odr noundef zeroext i1 @_ZN9__gnu_cxx20__is_single_threadedEv() #16 comdat {
  %1 = load i8, ptr @__libc_single_threaded, align 1, !tbaa !84
  %2 = icmp ne i8 %1, 0
  ret i1 %2
}

; Function Attrs: alwaysinline mustprogress uwtable
define linkonce_odr void @_ZN9__gnu_cxx21__atomic_add_dispatchEPii(ptr noundef %0, i32 noundef %1) #12 comdat {
  %3 = alloca ptr, align 8
  %4 = alloca i32, align 4
  store ptr %0, ptr %3, align 8, !tbaa !82
  store i32 %1, ptr %4, align 4, !tbaa !36
  %5 = call noundef zeroext i1 @_ZN9__gnu_cxx20__is_single_threadedEv() #3
  br i1 %5, label %6, label %9

6:                                                ; preds = %2
  %7 = load ptr, ptr %3, align 8, !tbaa !82
  %8 = load i32, ptr %4, align 4, !tbaa !36
  call void @_ZN9__gnu_cxx19__atomic_add_singleEPii(ptr noundef %7, i32 noundef %8)
  br label %12

9:                                                ; preds = %2
  %10 = load ptr, ptr %3, align 8, !tbaa !82
  %11 = load i32, ptr %4, align 4, !tbaa !36
  call void @_ZN9__gnu_cxx12__atomic_addEPVii(ptr noundef %10, i32 noundef %11)
  br label %12

12:                                               ; preds = %9, %6
  ret void
}

; Function Attrs: noinline noreturn nounwind uwtable
define linkonce_odr hidden void @__clang_call_terminate(ptr noundef %0) #13 comdat {
  %2 = call ptr @__cxa_begin_catch(ptr %0) #3
  call void @_ZSt9terminatev() #27
  unreachable
}

; Function Attrs: mustprogress uwtable
define linkonce_odr hidden void @_ZNSt16_Sp_counted_baseILN9__gnu_cxx12_Lock_policyE2EE15_M_add_ref_copyEv(ptr noundef nonnull align 8 dereferenceable(16) %0) #4 comdat align 2 {
  %2 = alloca ptr, align 8
  store ptr %0, ptr %2, align 8, !tbaa !74
  %3 = load ptr, ptr %2, align 8
  %4 = getelementptr inbounds nuw %"class.std::_Sp_counted_base", ptr %3, i32 0, i32 1
  call void @_ZN9__gnu_cxx21__atomic_add_dispatchEPii(ptr noundef %4, i32 noundef 1)
  ret void
}

; Function Attrs: mustprogress nounwind uwtable
define linkonce_odr hidden void @_ZNSt14__shared_countILN9__gnu_cxx12_Lock_policyE2EEC2ERKS2_(ptr noundef nonnull align 8 dereferenceable(8) %0, ptr noundef nonnull align 8 dereferenceable(8) %1) unnamed_addr #6 comdat align 2 personality ptr @__gxx_personality_v0 {
  %3 = alloca ptr, align 8
  %4 = alloca ptr, align 8
  store ptr %0, ptr %3, align 8, !tbaa !69
  store ptr %1, ptr %4, align 8, !tbaa !69
  %5 = load ptr, ptr %3, align 8
  %6 = getelementptr inbounds nuw %"class.std::__shared_count", ptr %5, i32 0, i32 0
  %7 = load ptr, ptr %4, align 8, !tbaa !69
  %8 = getelementptr inbounds nuw %"class.std::__shared_count", ptr %7, i32 0, i32 0
  %9 = load ptr, ptr %8, align 8, !tbaa !71
  store ptr %9, ptr %6, align 8, !tbaa !71
  %10 = getelementptr inbounds nuw %"class.std::__shared_count", ptr %5, i32 0, i32 0
  %11 = load ptr, ptr %10, align 8, !tbaa !71
  %12 = icmp ne ptr %11, null
  br i1 %12, label %13, label %17

13:                                               ; preds = %2
  %14 = getelementptr inbounds nuw %"class.std::__shared_count", ptr %5, i32 0, i32 0
  %15 = load ptr, ptr %14, align 8, !tbaa !71
  invoke void @_ZNSt16_Sp_counted_baseILN9__gnu_cxx12_Lock_policyE2EE15_M_add_ref_copyEv(ptr noundef nonnull align 8 dereferenceable(16) %15)
          to label %16 unwind label %18

16:                                               ; preds = %13
  br label %17

17:                                               ; preds = %16, %2
  ret void

18:                                               ; preds = %13
  %19 = landingpad { ptr, i32 }
          catch ptr null
  %20 = extractvalue { ptr, i32 } %19, 0
  call void @__clang_call_terminate(ptr %20) #27
  unreachable
}

; Function Attrs: mustprogress nounwind uwtable
define linkonce_odr hidden void @_ZNSt12__shared_ptrIN2cv7optflow24RLOFOpticalFlowParameterELN9__gnu_cxx12_Lock_policyE2EEC2ERKS5_(ptr noundef nonnull align 8 dereferenceable(16) %0, ptr noundef nonnull align 8 dereferenceable(16) %1) unnamed_addr #6 comdat align 2 {
  %3 = alloca ptr, align 8
  %4 = alloca ptr, align 8
  store ptr %0, ptr %3, align 8, !tbaa !89
  store ptr %1, ptr %4, align 8, !tbaa !89
  %5 = load ptr, ptr %3, align 8
  %6 = getelementptr inbounds nuw %"class.std::__shared_ptr", ptr %5, i32 0, i32 0
  %7 = load ptr, ptr %4, align 8, !tbaa !89
  %8 = getelementptr inbounds nuw %"class.std::__shared_ptr", ptr %7, i32 0, i32 0
  %9 = load ptr, ptr %8, align 8, !tbaa !91
  store ptr %9, ptr %6, align 8, !tbaa !91
  %10 = getelementptr inbounds nuw %"class.std::__shared_ptr", ptr %5, i32 0, i32 1
  %11 = load ptr, ptr %4, align 8, !tbaa !89
  %12 = getelementptr inbounds nuw %"class.std::__shared_ptr", ptr %11, i32 0, i32 1
  call void @_ZNSt14__shared_countILN9__gnu_cxx12_Lock_policyE2EEC2ERKS2_(ptr noundef nonnull align 8 dereferenceable(8) %10, ptr noundef nonnull align 8 dereferenceable(8) %12) #3
  ret void
}

; Function Attrs: mustprogress nounwind uwtable
define linkonce_odr hidden noundef ptr @_ZNKSt12__shared_ptrIN2cv7optflow20DenseRLOFOpticalFlowELN9__gnu_cxx12_Lock_policyE2EE3getEv(ptr noundef nonnull align 8 dereferenceable(16) %0) #6 comdat align 2 {
  %2 = alloca ptr, align 8
  store ptr %0, ptr %2, align 8, !tbaa !46
  %3 = load ptr, ptr %2, align 8
  %4 = getelementptr inbounds nuw %"class.std::__shared_ptr.2", ptr %3, i32 0, i32 0
  %5 = load ptr, ptr %4, align 8, !tbaa !338
  ret ptr %5
}

; Function Attrs: mustprogress nounwind uwtable
define linkonce_odr hidden void @_ZNSt10shared_ptrIN2cv7optflow24RLOFOpticalFlowParameterEEC2ERKS3_(ptr noundef nonnull align 8 dereferenceable(16) %0, ptr noundef nonnull align 8 dereferenceable(16) %1) unnamed_addr #6 comdat align 2 {
  %3 = alloca ptr, align 8
  %4 = alloca ptr, align 8
  store ptr %0, ptr %3, align 8, !tbaa !87
  store ptr %1, ptr %4, align 8, !tbaa !87
  %5 = load ptr, ptr %3, align 8
  %6 = load ptr, ptr %4, align 8, !tbaa !87
  call void @_ZNSt12__shared_ptrIN2cv7optflow24RLOFOpticalFlowParameterELN9__gnu_cxx12_Lock_policyE2EEC2ERKS5_(ptr noundef nonnull align 8 dereferenceable(16) %5, ptr noundef nonnull align 8 dereferenceable(16) %6) #3
  ret void
}

; Function Attrs: mustprogress nounwind uwtable
define linkonce_odr hidden noundef ptr @_ZNK2cv3PtrINS_7optflow20DenseRLOFOpticalFlowEEptEv(ptr noundef nonnull align 8 dereferenceable(16) %0) #6 comdat align 2 {
  %2 = alloca ptr, align 8
  store ptr %0, ptr %2, align 8, !tbaa !42
  %3 = load ptr, ptr %2, align 8
  %4 = call noundef ptr @_ZNKSt12__shared_ptrIN2cv7optflow20DenseRLOFOpticalFlowELN9__gnu_cxx12_Lock_policyE2EE3getEv(ptr noundef nonnull align 8 dereferenceable(16) %3) #3
  ret ptr %4
}

; Function Attrs: inlinehint mustprogress nounwind uwtable
define linkonce_odr hidden void @_ZN2cv3PtrINS_7optflow24RLOFOpticalFlowParameterEEC2ERKS3_(ptr noundef nonnull align 8 dereferenceable(16) %0, ptr noundef nonnull align 8 dereferenceable(16) %1) unnamed_addr #10 comdat align 2 {
  %3 = alloca ptr, align 8
  %4 = alloca ptr, align 8
  store ptr %0, ptr %3, align 8, !tbaa !28
  store ptr %1, ptr %4, align 8, !tbaa !28
  %5 = load ptr, ptr %3, align 8
  %6 = load ptr, ptr %4, align 8, !tbaa !28
  call void @_ZNSt10shared_ptrIN2cv7optflow24RLOFOpticalFlowParameterEEC2ERKS3_(ptr noundef nonnull align 8 dereferenceable(16) %5, ptr noundef nonnull align 8 dereferenceable(16) %6) #3
  ret void
}

; Function Attrs: mustprogress uwtable
define void @_ZN2cv7optflow24calcOpticalFlowDenseRLOFERKNS_11_InputArrayES3_RKNS_17_InputOutputArrayENS_3PtrINS0_24RLOFOpticalFlowParameterEEEfNS_5Size_IiEENS0_17InterpolationTypeEiffiibffb(ptr noundef nonnull align 8 dereferenceable(24) %0, ptr noundef nonnull align 8 dereferenceable(24) %1, ptr noundef nonnull align 8 dereferenceable(24) %2, ptr noundef %3, float noundef %4, i64 %5, i32 noundef %6, i32 noundef %7, float noundef %8, float noundef %9, i32 noundef %10, i32 noundef %11, i1 noundef zeroext %12, float noundef %13, float noundef %14, i1 noundef zeroext %15) #4 personality ptr @__gxx_personality_v0 {
  %17 = alloca %"class.cv::Size_", align 4
  %18 = alloca ptr, align 8
  %19 = alloca ptr, align 8
  %20 = alloca ptr, align 8
  %21 = alloca ptr, align 8
  %22 = alloca float, align 4
  %23 = alloca i32, align 4
  %24 = alloca i32, align 4
  %25 = alloca float, align 4
  %26 = alloca float, align 4
  %27 = alloca i32, align 4
  %28 = alloca i32, align 4
  %29 = alloca i8, align 1
  %30 = alloca float, align 4
  %31 = alloca float, align 4
  %32 = alloca i8, align 1
  %33 = alloca %"struct.cv::Ptr.0", align 8
  %34 = alloca %"struct.cv::Ptr", align 8
  %35 = alloca %"class.cv::Size_", align 4
  %36 = alloca ptr, align 8
  %37 = alloca i32, align 4
  store i64 %5, ptr %17, align 4
  store ptr %0, ptr %18, align 8, !tbaa !54
  store ptr %1, ptr %19, align 8, !tbaa !54
  store ptr %2, ptr %20, align 8, !tbaa !56
  store ptr %3, ptr %21, align 8, !tbaa !28
  store float %4, ptr %22, align 4, !tbaa !35
  store i32 %6, ptr %23, align 4, !tbaa !37
  store i32 %7, ptr %24, align 4, !tbaa !36
  store float %8, ptr %25, align 4, !tbaa !35
  store float %9, ptr %26, align 4, !tbaa !35
  store i32 %10, ptr %27, align 4, !tbaa !36
  store i32 %11, ptr %28, align 4, !tbaa !36
  %38 = zext i1 %12 to i8
  store i8 %38, ptr %29, align 1, !tbaa !30
  store float %13, ptr %30, align 4, !tbaa !35
  store float %14, ptr %31, align 4, !tbaa !35
  %39 = zext i1 %15 to i8
  store i8 %39, ptr %32, align 1, !tbaa !30
  call void @llvm.lifetime.start.p0(i64 16, ptr %33) #3
  call void @_ZN2cv3PtrINS_7optflow24RLOFOpticalFlowParameterEEC2ERKS3_(ptr noundef nonnull align 8 dereferenceable(16) %34, ptr noundef nonnull align 8 dereferenceable(16) %3) #3
  %40 = load float, ptr %22, align 4, !tbaa !35
  call void @llvm.memcpy.p0.p0.i64(ptr align 4 %35, ptr align 4 %17, i64 8, i1 false), !tbaa.struct !41
  %41 = load i32, ptr %23, align 4, !tbaa !37
  %42 = load i32, ptr %24, align 4, !tbaa !36
  %43 = load float, ptr %25, align 4, !tbaa !35
  %44 = load float, ptr %26, align 4, !tbaa !35
  %45 = load i32, ptr %27, align 4, !tbaa !36
  %46 = load i32, ptr %28, align 4, !tbaa !36
  %47 = load i8, ptr %29, align 1, !tbaa !30, !range !31, !noundef !32
  %48 = trunc i8 %47 to i1
  %49 = load float, ptr %30, align 4, !tbaa !35
  %50 = load float, ptr %31, align 4, !tbaa !35
  %51 = load i8, ptr %32, align 1, !tbaa !30, !range !31, !noundef !32
  %52 = trunc i8 %51 to i1
  %53 = load i64, ptr %35, align 4
  invoke void @_ZN2cv7optflow20DenseRLOFOpticalFlow6createENS_3PtrINS0_24RLOFOpticalFlowParameterEEEfNS_5Size_IiEENS0_17InterpolationTypeEiffiibffb(ptr dead_on_unwind writable sret(%"struct.cv::Ptr.0") align 8 %33, ptr noundef %34, float noundef %40, i64 %53, i32 noundef %41, i32 noundef %42, float noundef %43, float noundef %44, i32 noundef %45, i32 noundef %46, i1 noundef zeroext %48, float noundef %49, float noundef %50, i1 noundef zeroext %52)
          to label %54 unwind label %68

54:                                               ; preds = %16
  call void @_ZNSt12__shared_ptrIN2cv7optflow24RLOFOpticalFlowParameterELN9__gnu_cxx12_Lock_policyE2EED2Ev(ptr noundef nonnull align 8 dereferenceable(16) %34) #3
  %55 = call noundef ptr @_ZNK2cv3PtrINS_7optflow20DenseRLOFOpticalFlowEEptEv(ptr noundef nonnull align 8 dereferenceable(16) %33) #3
  %56 = load ptr, ptr %18, align 8, !tbaa !54
  %57 = load ptr, ptr %19, align 8, !tbaa !54
  %58 = load ptr, ptr %20, align 8, !tbaa !56
  %59 = load ptr, ptr %55, align 8, !tbaa !39
  %60 = getelementptr inbounds ptr, ptr %59, i64 8
  %61 = load ptr, ptr %60, align 8
  invoke void %61(ptr noundef nonnull align 8 dereferenceable(8) %55, ptr noundef nonnull align 8 dereferenceable(24) %56, ptr noundef nonnull align 8 dereferenceable(24) %57, ptr noundef nonnull align 8 dereferenceable(24) %58)
          to label %62 unwind label %72

62:                                               ; preds = %54
  %63 = call noundef ptr @_ZNK2cv3PtrINS_7optflow20DenseRLOFOpticalFlowEEptEv(ptr noundef nonnull align 8 dereferenceable(16) %33) #3
  %64 = load ptr, ptr %63, align 8, !tbaa !39
  %65 = getelementptr inbounds ptr, ptr %64, i64 9
  %66 = load ptr, ptr %65, align 8
  invoke void %66(ptr noundef nonnull align 8 dereferenceable(8) %63)
          to label %67 unwind label %72

67:                                               ; preds = %62
  call void @_ZNSt12__shared_ptrIN2cv7optflow20DenseRLOFOpticalFlowELN9__gnu_cxx12_Lock_policyE2EED2Ev(ptr noundef nonnull align 8 dereferenceable(16) %33) #3
  call void @llvm.lifetime.end.p0(i64 16, ptr %33) #3
  ret void

68:                                               ; preds = %16
  %69 = landingpad { ptr, i32 }
          cleanup
  %70 = extractvalue { ptr, i32 } %69, 0
  store ptr %70, ptr %36, align 8
  %71 = extractvalue { ptr, i32 } %69, 1
  store i32 %71, ptr %37, align 4
  call void @_ZNSt12__shared_ptrIN2cv7optflow24RLOFOpticalFlowParameterELN9__gnu_cxx12_Lock_policyE2EED2Ev(ptr noundef nonnull align 8 dereferenceable(16) %34) #3
  br label %76

72:                                               ; preds = %62, %54
  %73 = landingpad { ptr, i32 }
          cleanup
  %74 = extractvalue { ptr, i32 } %73, 0
  store ptr %74, ptr %36, align 8
  %75 = extractvalue { ptr, i32 } %73, 1
  store i32 %75, ptr %37, align 4
  call void @_ZNSt12__shared_ptrIN2cv7optflow20DenseRLOFOpticalFlowELN9__gnu_cxx12_Lock_policyE2EED2Ev(ptr noundef nonnull align 8 dereferenceable(16) %33) #3
  br label %76

76:                                               ; preds = %72, %68
  call void @llvm.lifetime.end.p0(i64 16, ptr %33) #3
  br label %77

77:                                               ; preds = %76
  %78 = load ptr, ptr %36, align 8
  %79 = load i32, ptr %37, align 4
  %80 = insertvalue { ptr, i32 } poison, ptr %78, 0
  %81 = insertvalue { ptr, i32 } %80, i32 %79, 1
  resume { ptr, i32 } %81
}