; Function Attrs: mustprogress uwtable
define void @_ZN2cv7optflow24calcOpticalFlowDenseRLOFERKNS_11_InputArrayES3_RKNS_17_InputOutputArrayENS_3PtrINS0_24RLOFOpticalFlowParameterEEEfNS_5Size_IiEENS0_17InterpolationTypeEiffiibffb(ptr noundef nonnull align 8 dereferenceable(24) %0, ptr noundef nonnull align 8 dereferenceable(24) %1, ptr noundef nonnull align 8 dereferenceable(24) %2, ptr noundef readonly captures(none) %3, float noundef %4, i64 %5, i32 noundef %6, i32 noundef %7, float noundef %8, float noundef %9, i32 noundef %10, i32 noundef %11, i1 noundef zeroext %12, float noundef %13, float noundef %14, i1 noundef zeroext %15) local_unnamed_addr #3 personality ptr @__gxx_personality_v0 {
  %17 = alloca %"struct.cv::Ptr.0", align 8
  %18 = alloca %"struct.cv::Ptr", align 8
  call void @llvm.lifetime.start.p0(i64 16, ptr nonnull %17) #27
  %19 = load ptr, ptr %3, align 8, !tbaa !25
  store ptr %19, ptr %18, align 8, !tbaa !25
  %20 = getelementptr inbounds nuw i8, ptr %18, i64 8
  %21 = getelementptr inbounds nuw i8, ptr %3, i64 8
  %22 = load ptr, ptr %21, align 8, !tbaa !31
  store ptr %22, ptr %20, align 8, !tbaa !31
  %.not.i.i.i.i = icmp eq ptr %22, null
  br i1 %.not.i.i.i.i, label %_ZN2cv3PtrINS_7optflow24RLOFOpticalFlowParameterEEC2ERKS3_.exit, label %23

23:                                               ; preds = %16
  %24 = getelementptr inbounds nuw i8, ptr %22, i64 8
  %25 = load i8, ptr @__libc_single_threaded, align 1, !tbaa !49
  %.not.i.i.i.i.i = icmp eq i8 %25, 0
  br i1 %.not.i.i.i.i.i, label %29, label %26

26:                                               ; preds = %23
  %27 = load i32, ptr %24, align 4, !tbaa !50
  %28 = add nsw i32 %27, 1
  store i32 %28, ptr %24, align 4, !tbaa !50
  br label %_ZN2cv3PtrINS_7optflow24RLOFOpticalFlowParameterEEC2ERKS3_.exit

29:                                               ; preds = %23
  %30 = atomicrmw volatile add ptr %24, i32 1 acq_rel, align 4
  br label %_ZN2cv3PtrINS_7optflow24RLOFOpticalFlowParameterEEC2ERKS3_.exit

_ZN2cv3PtrINS_7optflow24RLOFOpticalFlowParameterEEC2ERKS3_.exit: ; preds = %16, %26, %29
  invoke void @_ZN2cv7optflow20DenseRLOFOpticalFlow6createENS_3PtrINS0_24RLOFOpticalFlowParameterEEEfNS_5Size_IiEENS0_17InterpolationTypeEiffiibffb(ptr dead_on_unwind nonnull writable sret(%"struct.cv::Ptr.0") align 8 %17, ptr noundef nonnull %18, float noundef %4, i64 %5, i32 noundef %6, i32 noundef %7, float noundef %8, float noundef %9, i32 noundef %10, i32 noundef %11, i1 noundef zeroext %12, float noundef %13, float noundef %14, i1 noundef zeroext %15)
          to label %31 unwind label %87

31:                                               ; preds = %_ZN2cv3PtrINS_7optflow24RLOFOpticalFlowParameterEEC2ERKS3_.exit
  %32 = load ptr, ptr %20, align 8, !tbaa !31
  %.not.i.i = icmp eq ptr %32, null
  br i1 %.not.i.i, label %_ZNSt12__shared_ptrIN2cv7optflow24RLOFOpticalFlowParameterELN9__gnu_cxx12_Lock_policyE2EED2Ev.exit, label %33

33:                                               ; preds = %31
  %34 = getelementptr inbounds nuw i8, ptr %32, i64 8
  %35 = load atomic i64, ptr %34 acquire, align 8
  %36 = icmp eq i64 %35, 4294967297
  %37 = trunc i64 %35 to i32
  br i1 %36, label %38, label %46

38:                                               ; preds = %33
  store i32 0, ptr %34, align 8, !tbaa !32
  %39 = getelementptr inbounds nuw i8, ptr %32, i64 12
  store i32 0, ptr %39, align 4, !tbaa !34
  %40 = load ptr, ptr %32, align 8, !tbaa !35
  %41 = getelementptr inbounds nuw i8, ptr %40, i64 16
  %42 = load ptr, ptr %41, align 8
  call void %42(ptr noundef nonnull align 8 dereferenceable(16) %32) #27
  %43 = load ptr, ptr %32, align 8, !tbaa !35
  %44 = getelementptr inbounds nuw i8, ptr %43, i64 24
  %45 = load ptr, ptr %44, align 8
  call void %45(ptr noundef nonnull align 8 dereferenceable(16) %32) #27
  br label %_ZNSt12__shared_ptrIN2cv7optflow24RLOFOpticalFlowParameterELN9__gnu_cxx12_Lock_policyE2EED2Ev.exit

46:                                               ; preds = %33
  %47 = load i8, ptr @__libc_single_threaded, align 1, !tbaa !49
  %.not.i.i.i = icmp eq i8 %47, 0
  br i1 %.not.i.i.i, label %50, label %48

48:                                               ; preds = %46
  %49 = add nsw i32 %37, -1
  store i32 %49, ptr %34, align 4, !tbaa !50
  br label %_ZN9__gnu_cxx27__exchange_and_add_dispatchEPii.exit.i.i.i

50:                                               ; preds = %46
  %51 = atomicrmw volatile add ptr %34, i32 -1 acq_rel, align 4
  br label %_ZN9__gnu_cxx27__exchange_and_add_dispatchEPii.exit.i.i.i

_ZN9__gnu_cxx27__exchange_and_add_dispatchEPii.exit.i.i.i: ; preds = %50, %48
  %.0.i.i.i.i = phi i32 [ %37, %48 ], [ %51, %50 ]
  %52 = icmp eq i32 %.0.i.i.i.i, 1
  br i1 %52, label %53, label %_ZNSt12__shared_ptrIN2cv7optflow24RLOFOpticalFlowParameterELN9__gnu_cxx12_Lock_policyE2EED2Ev.exit, !prof !51

53:                                               ; preds = %_ZN9__gnu_cxx27__exchange_and_add_dispatchEPii.exit.i.i.i
  call void @_ZNSt16_Sp_counted_baseILN9__gnu_cxx12_Lock_policyE2EE24_M_release_last_use_coldEv(ptr noundef nonnull align 8 dereferenceable(16) %32) #27
  br label %_ZNSt12__shared_ptrIN2cv7optflow24RLOFOpticalFlowParameterELN9__gnu_cxx12_Lock_policyE2EED2Ev.exit

_ZNSt12__shared_ptrIN2cv7optflow24RLOFOpticalFlowParameterELN9__gnu_cxx12_Lock_policyE2EED2Ev.exit: ; preds = %31, %38, %_ZN9__gnu_cxx27__exchange_and_add_dispatchEPii.exit.i.i.i, %53
  %54 = load ptr, ptr %17, align 8, !tbaa !46
  %55 = load ptr, ptr %54, align 8, !tbaa !35
  %56 = getelementptr inbounds nuw i8, ptr %55, i64 64
  %57 = load ptr, ptr %56, align 8
  invoke void %57(ptr noundef nonnull align 8 dereferenceable(8) %54, ptr noundef nonnull align 8 dereferenceable(24) %0, ptr noundef nonnull align 8 dereferenceable(24) %1, ptr noundef nonnull align 8 dereferenceable(24) %2)
          to label %58 unwind label %89

58:                                               ; preds = %_ZNSt12__shared_ptrIN2cv7optflow24RLOFOpticalFlowParameterELN9__gnu_cxx12_Lock_policyE2EED2Ev.exit
  %59 = load ptr, ptr %17, align 8, !tbaa !46
  %60 = load ptr, ptr %59, align 8, !tbaa !35
  %61 = getelementptr inbounds nuw i8, ptr %60, i64 72
  %62 = load ptr, ptr %61, align 8
  invoke void %62(ptr noundef nonnull align 8 dereferenceable(8) %59)
          to label %63 unwind label %89

63:                                               ; preds = %58
  %64 = getelementptr inbounds nuw i8, ptr %17, i64 8
  %65 = load ptr, ptr %64, align 8, !tbaa !31
  %.not.i.i18 = icmp eq ptr %65, null
  br i1 %.not.i.i18, label %_ZNSt12__shared_ptrIN2cv7optflow20DenseRLOFOpticalFlowELN9__gnu_cxx12_Lock_policyE2EED2Ev.exit, label %66

66:                                               ; preds = %63
  %67 = getelementptr inbounds nuw i8, ptr %65, i64 8
  %68 = load atomic i64, ptr %67 acquire, align 8
  %69 = icmp eq i64 %68, 4294967297
  %70 = trunc i64 %68 to i32
  br i1 %69, label %71, label %79

71:                                               ; preds = %66
  store i32 0, ptr %67, align 8, !tbaa !32
  %72 = getelementptr inbounds nuw i8, ptr %65, i64 12
  store i32 0, ptr %72, align 4, !tbaa !34
  %73 = load ptr, ptr %65, align 8, !tbaa !35
  %74 = getelementptr inbounds nuw i8, ptr %73, i64 16
  %75 = load ptr, ptr %74, align 8
  call void %75(ptr noundef nonnull align 8 dereferenceable(16) %65) #27
  %76 = load ptr, ptr %65, align 8, !tbaa !35
  %77 = getelementptr inbounds nuw i8, ptr %76, i64 24
  %78 = load ptr, ptr %77, align 8
  call void %78(ptr noundef nonnull align 8 dereferenceable(16) %65) #27
  br label %_ZNSt12__shared_ptrIN2cv7optflow20DenseRLOFOpticalFlowELN9__gnu_cxx12_Lock_policyE2EED2Ev.exit

79:                                               ; preds = %66
  %80 = load i8, ptr @__libc_single_threaded, align 1, !tbaa !49
  %.not.i.i.i19 = icmp eq i8 %80, 0
  br i1 %.not.i.i.i19, label %83, label %81

81:                                               ; preds = %79
  %82 = add nsw i32 %70, -1
  store i32 %82, ptr %67, align 4, !tbaa !50
  br label %_ZN9__gnu_cxx27__exchange_and_add_dispatchEPii.exit.i.i.i20

83:                                               ; preds = %79
  %84 = atomicrmw volatile add ptr %67, i32 -1 acq_rel, align 4
  br label %_ZN9__gnu_cxx27__exchange_and_add_dispatchEPii.exit.i.i.i20

_ZN9__gnu_cxx27__exchange_and_add_dispatchEPii.exit.i.i.i20: ; preds = %83, %81
  %.0.i.i.i.i21 = phi i32 [ %70, %81 ], [ %84, %83 ]
  %85 = icmp eq i32 %.0.i.i.i.i21, 1
  br i1 %85, label %86, label %_ZNSt12__shared_ptrIN2cv7optflow20DenseRLOFOpticalFlowELN9__gnu_cxx12_Lock_policyE2EED2Ev.exit, !prof !51

86:                                               ; preds = %_ZN9__gnu_cxx27__exchange_and_add_dispatchEPii.exit.i.i.i20
  call void @_ZNSt16_Sp_counted_baseILN9__gnu_cxx12_Lock_policyE2EE24_M_release_last_use_coldEv(ptr noundef nonnull align 8 dereferenceable(16) %65) #27
  br label %_ZNSt12__shared_ptrIN2cv7optflow20DenseRLOFOpticalFlowELN9__gnu_cxx12_Lock_policyE2EED2Ev.exit

_ZNSt12__shared_ptrIN2cv7optflow20DenseRLOFOpticalFlowELN9__gnu_cxx12_Lock_policyE2EED2Ev.exit: ; preds = %63, %71, %_ZN9__gnu_cxx27__exchange_and_add_dispatchEPii.exit.i.i.i20, %86
  call void @llvm.lifetime.end.p0(i64 16, ptr nonnull %17) #27
  ret void

87:                                               ; preds = %_ZN2cv3PtrINS_7optflow24RLOFOpticalFlowParameterEEC2ERKS3_.exit
  %88 = landingpad { ptr, i32 }
          cleanup
  call void @_ZNSt12__shared_ptrIN2cv7optflow24RLOFOpticalFlowParameterELN9__gnu_cxx12_Lock_policyE2EED2Ev(ptr noundef nonnull align 8 dereferenceable(16) %18) #27
  br label %91

89:                                               ; preds = %58, %_ZNSt12__shared_ptrIN2cv7optflow24RLOFOpticalFlowParameterELN9__gnu_cxx12_Lock_policyE2EED2Ev.exit
  %90 = landingpad { ptr, i32 }
          cleanup
  call void @_ZNSt12__shared_ptrIN2cv7optflow20DenseRLOFOpticalFlowELN9__gnu_cxx12_Lock_policyE2EED2Ev(ptr noundef nonnull align 8 dereferenceable(16) %17) #27
  br label %91

91:                                               ; preds = %89, %87
  %.pn = phi { ptr, i32 } [ %90, %89 ], [ %88, %87 ]
  call void @llvm.lifetime.end.p0(i64 16, ptr nonnull %17) #27
  resume { ptr, i32 } %.pn
}